target datalayout = "e-m:e-p270:32:32-p271:32:32-p272:64:64-i64:64-i128:128-f80:128-n8:16:32:64-S128"
target triple = "x86_64-pc-linux-gnu"

%struct.H5HF_hdr_t = type { %struct.H5C_cache_entry_t, i32, i32, i8, i8, i8, i8, %struct.H5HF_dtable_t, i64, i64, i32, i64, i64, %struct.H5O_pline_t, i64, i32, i64, i64, i64, i64, i64, i64, i64, i64, i64, i64, i64, i32, ptr, i64, i8, i8, i8, ptr, i32, ptr, %struct.H5HF_block_iter_t, ptr, i64, i8, i8, i64, i8, i8, i8, i8 }
%struct.H5C_cache_entry_t = type { ptr, i64, i64, ptr, i8, ptr, i8, i8, i8, i8, i32, i8, i8, i8, i8, i8, i32, ptr, i32, i32, i32, i32, i32, i8, i8, ptr, ptr, ptr, ptr, ptr, ptr, i8, i32, i8, i64, ptr, i64, i64, i32, i8, i32, i32, i8, ptr, ptr, ptr }
%struct.H5HF_dtable_t = type { %struct.H5HF_dtable_cparam_t, i64, i32, i32, i32, i32, i32, i32, i32, i64, ptr, ptr, ptr, ptr }
%struct.H5HF_dtable_cparam_t = type { i32, i64, i64, i32, i32 }
%struct.H5O_pline_t = type { %struct.H5O_shared_t, i32, i64, i64, ptr }
%struct.H5O_shared_t = type { i32, ptr, i32, %union.anon }
%union.anon = type { %struct.H5O_mesg_loc_t }
%struct.H5O_mesg_loc_t = type { i32, i64 }
%struct.H5HF_block_iter_t = type { i8, ptr }
%struct.H5HF_parent_t = type { ptr, ptr, i32 }
%struct.H5HF_indirect_t = type { %struct.H5C_cache_entry_t, i64, ptr, ptr, ptr, i32, i64, i64, i32, i32, i32, i32, ptr, i8, i64, ptr, ptr }
%struct.H5HF_indirect_filt_ent_t = type { i64, i32 }
%struct.H5HF_dblock_cache_ud_t = type { %struct.H5HF_parent_t, ptr, i64, i64, i32, ptr, i32 }

@H5HF_init_g = external global i8, align 1
@H5_libterm_g = external global i8, align 1

; Function Attrs: nounwind uwtable
define internal i32 @H5HF__cache_dblock_get_initial_load_size(ptr noundef %0, ptr noundef %1) #0 {
  %3 = alloca ptr, align 8
  %4 = alloca ptr, align 8
  %5 = alloca ptr, align 8
  %6 = alloca ptr, align 8
  %7 = alloca ptr, align 8
  store ptr %0, ptr %3, align 8, !tbaa !3
  store ptr %1, ptr %4, align 8, !tbaa !7
  call void @llvm.lifetime.start.p0(i64 8, ptr %5) #8
  %8 = load ptr, ptr %3, align 8, !tbaa !3
  store ptr %8, ptr %5, align 8, !tbaa !158
  call void @llvm.lifetime.start.p0(i64 8, ptr %6) #8
  call void @llvm.lifetime.start.p0(i64 8, ptr %7) #8
  %9 = load i8, ptr @H5HF_init_g, align 1, !tbaa !11, !range !13, !noundef !14
  %10 = trunc i8 %9 to i1
  br i1 %10, label %15, label %11

11:                                               ; preds = %2
  %12 = load i8, ptr @H5_libterm_g, align 1, !tbaa !11, !range !13, !noundef !14
  %13 = trunc i8 %12 to i1
  %14 = xor i1 %13, true
  br label %15

15:                                               ; preds = %11, %2
  %16 = phi i1 [ true, %2 ], [ %14, %11 ]
  %17 = xor i1 %16, true
  %18 = xor i1 %17, true
  %19 = zext i1 %18 to i32
  %20 = sext i32 %19 to i64
  %21 = call i64 @llvm.expect.i64(i64 %20, i64 1)
  %22 = icmp ne i64 %21, 0
  br i1 %22, label %23, label %64

23:                                               ; preds = %15
  %24 = load ptr, ptr %5, align 8, !tbaa !158
  %25 = getelementptr inbounds nuw %struct.H5HF_dblock_cache_ud_t, ptr %24, i32 0, i32 0
  store ptr %25, ptr %6, align 8, !tbaa !160
  %26 = load ptr, ptr %6, align 8, !tbaa !160
  %27 = getelementptr inbounds nuw %struct.H5HF_parent_t, ptr %26, i32 0, i32 0
  %28 = load ptr, ptr %27, align 8, !tbaa !113
  store ptr %28, ptr %7, align 8, !tbaa !47
  %29 = load ptr, ptr %7, align 8, !tbaa !47
  %30 = getelementptr inbounds nuw %struct.H5HF_hdr_t, ptr %29, i32 0, i32 2
  %31 = load i32, ptr %30, align 4, !tbaa !44
  %32 = icmp ugt i32 %31, 0
  br i1 %32, label %33, label %58

33:                                               ; preds = %23
  %34 = load ptr, ptr %6, align 8, !tbaa !160
  %35 = getelementptr inbounds nuw %struct.H5HF_parent_t, ptr %34, i32 0, i32 1
  %36 = load ptr, ptr %35, align 8, !tbaa !131
  %37 = icmp eq ptr %36, null
  br i1 %37, label %38, label %43

38:                                               ; preds = %33
  %39 = load ptr, ptr %7, align 8, !tbaa !47
  %40 = getelementptr inbounds nuw %struct.H5HF_hdr_t, ptr %39, i32 0, i32 14
  %41 = load i64, ptr %40, align 8, !tbaa !75
  %42 = load ptr, ptr %4, align 8, !tbaa !7
  store i64 %41, ptr %42, align 8, !tbaa !40
  br label %57

43:                                               ; preds = %33
  %44 = load ptr, ptr %6, align 8, !tbaa !160
  %45 = getelementptr inbounds nuw %struct.H5HF_parent_t, ptr %44, i32 0, i32 1
  %46 = load ptr, ptr %45, align 8, !tbaa !131
  %47 = getelementptr inbounds nuw %struct.H5HF_indirect_t, ptr %46, i32 0, i32 16
  %48 = load ptr, ptr %47, align 8, !tbaa !141
  %49 = load ptr, ptr %6, align 8, !tbaa !160
  %50 = getelementptr inbounds nuw %struct.H5HF_parent_t, ptr %49, i32 0, i32 2
  %51 = load i32, ptr %50, align 8, !tbaa !134
  %52 = zext i32 %51 to i64
  %53 = getelementptr inbounds nuw %struct.H5HF_indirect_filt_ent_t, ptr %48, i64 %52
  %54 = getelementptr inbounds nuw %struct.H5HF_indirect_filt_ent_t, ptr %53, i32 0, i32 0
  %55 = load i64, ptr %54, align 8, !tbaa !142
  %56 = load ptr, ptr %4, align 8, !tbaa !7
  store i64 %55, ptr %56, align 8, !tbaa !40
  br label %57

57:                                               ; preds = %43, %38
  br label %63

58:                                               ; preds = %23
  %59 = load ptr, ptr %5, align 8, !tbaa !158
  %60 = getelementptr inbounds nuw %struct.H5HF_dblock_cache_ud_t, ptr %59, i32 0, i32 3
  %61 = load i64, ptr %60, align 8, !tbaa !161
  %62 = load ptr, ptr %4, align 8, !tbaa !7
  store i64 %61, ptr %62, align 8, !tbaa !40
  br label %63

63:                                               ; preds = %58, %57
  br label %64

64:                                               ; preds = %63, %15
  call void @llvm.lifetime.end.p0(i64 8, ptr %7) #8
  call void @llvm.lifetime.end.p0(i64 8, ptr %6) #8
  call void @llvm.lifetime.end.p0(i64 8, ptr %5) #8
  ret i32 0
}