; Function Attrs: mustprogress nofree norecurse nosync nounwind willreturn memory(read, argmem: readwrite, inaccessiblemem: none) uwtable
define internal noundef i32 @H5HF__cache_dblock_get_initial_load_size(ptr noundef readonly captures(none) %0, ptr noundef writeonly captures(none) %1) #1 {
  %3 = load i8, ptr @H5HF_init_g, align 1, !tbaa !3, !range !7, !noundef !8
  %4 = trunc nuw i8 %3 to i1
  %5 = load i8, ptr @H5_libterm_g, align 1, !range !7
  %6 = trunc nuw i8 %5 to i1
  %7 = xor i1 %6, true
  %8 = select i1 %4, i1 true, i1 %7
  br i1 %8, label %9, label %28, !prof !9

9:                                                ; preds = %2
  %10 = load ptr, ptr %0, align 8, !tbaa !100
  %11 = getelementptr inbounds nuw i8, ptr %10, i64 252
  %12 = load i32, ptr %11, align 4, !tbaa !75
  %.not = icmp eq i32 %12, 0
  br i1 %.not, label %26, label %13

13:                                               ; preds = %9
  %14 = getelementptr inbounds nuw i8, ptr %0, i64 8
  %15 = load ptr, ptr %14, align 8, !tbaa !118
  %16 = icmp eq ptr %15, null
  br i1 %16, label %17, label %19

17:                                               ; preds = %13
  %18 = getelementptr inbounds nuw i8, ptr %10, i64 488
  br label %.sink.split

19:                                               ; preds = %13
  %20 = getelementptr inbounds nuw i8, ptr %15, i64 352
  %21 = load ptr, ptr %20, align 8, !tbaa !128
  %22 = getelementptr inbounds nuw i8, ptr %0, i64 16
  %23 = load i32, ptr %22, align 8, !tbaa !121
  %24 = zext i32 %23 to i64
  %25 = getelementptr inbounds nuw %struct.H5HF_indirect_filt_ent_t, ptr %21, i64 %24
  br label %.sink.split

26:                                               ; preds = %9
  %27 = getelementptr inbounds nuw i8, ptr %0, i64 40
  br label %.sink.split

.sink.split:                                      ; preds = %17, %19, %26
  %.sink.in = phi ptr [ %27, %26 ], [ %25, %19 ], [ %18, %17 ]
  %.sink = load i64, ptr %.sink.in, align 8, !tbaa !14
  store i64 %.sink, ptr %1, align 8, !tbaa !14
  br label %28

28:                                               ; preds = %.sink.split, %2
  ret i32 0
}